; Function Attrs: nounwind uwtable
define range(i32 -1, 1) i32 @H5ESget_count(i64 noundef %0, ptr noundef writeonly captures(address_is_null) %1) local_unnamed_addr #0 {
  %3 = alloca %struct.H5CX_node_t, align 8
  call void @llvm.lifetime.start.p0(i64 480, ptr nonnull %3) #4
  call void @llvm.memset.p0.i64(ptr noundef nonnull align 8 dereferenceable(480) %3, i8 0, i64 480, i1 false)
  %4 = load i8, ptr @H5_libinit_g, align 1, !tbaa !3, !range !7, !noundef !8
  %5 = trunc nuw i8 %4 to i1
  %6 = load i8, ptr @H5_libterm_g, align 1, !range !7
  %7 = trunc nuw i8 %6 to i1
  %8 = select i1 %5, i1 true, i1 %7
  br i1 %8, label %16, label %9, !prof !9

9:                                                ; preds = %2
  %10 = tail call i32 @H5_init_library() #4
  %11 = icmp slt i32 %10, 0
  br i1 %11, label %12, label %._crit_edge, !prof !10

._crit_edge:                                      ; preds = %9
  %.pre = load i8, ptr @H5_libterm_g, align 1, !range !7
  br label %16

12:                                               ; preds = %9
  %13 = load i64, ptr @H5E_FUNC_g, align 8, !tbaa !11
  %14 = load i64, ptr @H5E_CANTINIT_g, align 8, !tbaa !11
  %15 = tail call i32 (ptr, ptr, i32, i64, i64, ptr, ...) @H5E_printf_stack(ptr noundef nonnull @.str, ptr noundef nonnull @__func__.H5ESget_count, i32 noundef 152, i64 noundef %13, i64 noundef %14, ptr noundef nonnull @.str.1) #4
  br label %.thread30

16:                                               ; preds = %._crit_edge, %2
  %17 = phi i8 [ %.pre, %._crit_edge ], [ %6, %2 ]
  %18 = load i8, ptr @H5ES_init_g, align 1, !tbaa !3, !range !7, !noundef !8
  %19 = trunc nuw i8 %18 to i1
  %20 = trunc nuw i8 %17 to i1
  %21 = select i1 %19, i1 true, i1 %20
  br i1 %21, label %29, label %22, !prof !9

22:                                               ; preds = %16
  store i8 1, ptr @H5ES_init_g, align 1, !tbaa !3
  %23 = tail call i32 @H5ES__init_package() #4
  %24 = icmp slt i32 %23, 0
  br i1 %24, label %25, label %29, !prof !13

25:                                               ; preds = %22
  store i8 0, ptr @H5ES_init_g, align 1, !tbaa !3
  %26 = load i64, ptr @H5E_FUNC_g, align 8, !tbaa !11
  %27 = load i64, ptr @H5E_CANTINIT_g, align 8, !tbaa !11
  %28 = tail call i32 (ptr, ptr, i32, i64, i64, ptr, ...) @H5E_printf_stack(ptr noundef nonnull @.str, ptr noundef nonnull @__func__.H5ESget_count, i32 noundef 152, i64 noundef %26, i64 noundef %27, ptr noundef nonnull @.str.2) #4
  br label %.thread30

29:                                               ; preds = %16, %22
  %30 = call i32 @H5CX_push(ptr noundef nonnull %3) #4
  %31 = icmp slt i32 %30, 0
  br i1 %31, label %32, label %36, !prof !10

32:                                               ; preds = %29
  %33 = load i64, ptr @H5E_FUNC_g, align 8, !tbaa !11
  %34 = load i64, ptr @H5E_CANTSET_g, align 8, !tbaa !11
  %35 = call i32 (ptr, ptr, i32, i64, i64, ptr, ...) @H5E_printf_stack(ptr noundef nonnull @.str, ptr noundef nonnull @__func__.H5ESget_count, i32 noundef 152, i64 noundef %33, i64 noundef %34, ptr noundef nonnull @.str.3) #4
  br label %.thread30

36:                                               ; preds = %29
  %37 = call i32 @H5E_clear_stack() #4
  %.not = icmp eq i64 %0, 0
  br i1 %.not, label %.thread35, label %38

38:                                               ; preds = %36
  %39 = call ptr @H5I_object_verify(i64 noundef %0, i32 noundef 16) #4
  %40 = icmp eq ptr %39, null
  br i1 %40, label %46, label %41

41:                                               ; preds = %38
  %.not21 = icmp eq ptr %1, null
  br i1 %.not21, label %.thread35, label %42

42:                                               ; preds = %41
  %43 = getelementptr inbounds nuw i8, ptr %39, i64 40
  %44 = call i64 @H5ES__list_count(ptr noundef nonnull %43) #4
  store i64 %44, ptr %1, align 8, !tbaa !11
  br label %.thread35

.thread35:                                        ; preds = %41, %42, %36
  %45 = call i32 @H5CX_pop(i1 noundef zeroext true) #4
  br label %52

46:                                               ; preds = %38
  %47 = load i64, ptr @H5E_ARGS_g, align 8, !tbaa !11
  %48 = load i64, ptr @H5E_BADTYPE_g, align 8, !tbaa !11
  %49 = call i32 (ptr, ptr, i32, i64, i64, ptr, ...) @H5E_printf_stack(ptr noundef nonnull @.str, ptr noundef nonnull @__func__.H5ESget_count, i32 noundef 160, i64 noundef %47, i64 noundef %48, ptr noundef nonnull @.str.6) #4
  %50 = call i32 @H5CX_pop(i1 noundef zeroext true) #4
  br label %.thread30

.thread30:                                        ; preds = %32, %25, %12, %46
  %51 = call i32 @H5E_dump_api_stack() #4
  br label %52

52:                                               ; preds = %.thread35, %.thread30
  %.013 = phi i32 [ -1, %.thread30 ], [ 0, %.thread35 ]
  call void @llvm.lifetime.end.p0(i64 480, ptr nonnull %3) #4
  ret i32 %.013
}